; Function Attrs: mustprogress nounwind uwtable
define dso_local ptr @_ZN5clang4ento8RangeSet7Factory11getRangeSetENS0_5RangeE(ptr noundef nonnull align 8 dereferenceable(120) %0, ptr %1, ptr %2) local_unnamed_addr #1 align 2 {
  %4 = alloca %"struct.clang::ento::RangeSet::ContainerType", align 8
  %5 = getelementptr inbounds i8, ptr %4, i64 16
  call void @_ZN4llvm15SmallVectorBaseIjEC2EPvm(ptr noundef nonnull align 8 dereferenceable(16) %4, ptr noundef nonnull %5, i64 noundef 4) #22
  %6 = getelementptr inbounds i8, ptr %4, i64 80
  store ptr null, ptr %6, align 8
  %7 = call noundef i64 @_ZNK4llvm15SmallVectorBaseIjE4sizeEv(ptr noundef nonnull align 8 dereferenceable(16) %4) #22
  %8 = add i64 %7, 1
  %9 = call noundef i64 @_ZNK4llvm15SmallVectorBaseIjE8capacityEv(ptr noundef nonnull align 8 dereferenceable(16) %4) #22
  %.not.i.i.i = icmp ugt i64 %8, %9
  br i1 %.not.i.i.i, label %10, label %_ZN4llvm23SmallVectorTemplateBaseIN5clang4ento5RangeELb1EE9push_backES3_.exit

10:                                               ; preds = %3
  call void @_ZN4llvm15SmallVectorBaseIjE8grow_podEPvmm(ptr noundef nonnull align 8 dereferenceable(16) %4, ptr noundef nonnull %5, i64 noundef %8, i64 noundef 16) #22
  br label %_ZN4llvm23SmallVectorTemplateBaseIN5clang4ento5RangeELb1EE9push_backES3_.exit

_ZN4llvm23SmallVectorTemplateBaseIN5clang4ento5RangeELb1EE9push_backES3_.exit: ; preds = %3, %10
  %11 = load ptr, ptr %4, align 8
  %12 = call noundef i64 @_ZNK4llvm15SmallVectorBaseIjE4sizeEv(ptr noundef nonnull align 8 dereferenceable(16) %4) #22
  %13 = getelementptr inbounds %"class.clang::ento::Range", ptr %11, i64 %12
  store ptr %1, ptr %13, align 1
  %.sroa.2.0..sroa_idx.i = getelementptr inbounds i8, ptr %13, i64 8
  store ptr %2, ptr %.sroa.2.0..sroa_idx.i, align 1
  %14 = call noundef i64 @_ZNK4llvm15SmallVectorBaseIjE4sizeEv(ptr noundef nonnull align 8 dereferenceable(16) %4) #22
  %15 = add i64 %14, 1
  call void @_ZN4llvm15SmallVectorBaseIjE8set_sizeEm(ptr noundef nonnull align 8 dereferenceable(16) %4, i64 noundef %15) #22
  %16 = call ptr @_ZN5clang4ento8RangeSet7Factory14makePersistentEONS1_13ContainerTypeE(ptr noundef nonnull align 8 dereferenceable(120) %0, ptr noundef nonnull align 8 dereferenceable(88) %4)
  %17 = call noundef i64 @_ZNK4llvm15SmallVectorBaseIjE4sizeEv(ptr noundef nonnull align 8 dereferenceable(16) %4) #22
  %18 = load ptr, ptr %4, align 8
  %19 = icmp eq ptr %18, %5
  br i1 %19, label %_ZN5clang4ento8RangeSet13ContainerTypeD2Ev.exit, label %20

20:                                               ; preds = %_ZN4llvm23SmallVectorTemplateBaseIN5clang4ento5RangeELb1EE9push_backES3_.exit
  call void @free(ptr noundef %18) #22
  br label %_ZN5clang4ento8RangeSet13ContainerTypeD2Ev.exit

_ZN5clang4ento8RangeSet13ContainerTypeD2Ev.exit:  ; preds = %_ZN4llvm23SmallVectorTemplateBaseIN5clang4ento5RangeELb1EE9push_backES3_.exit, %20
  ret ptr %16
}